target datalayout = "e-m:e-p270:32:32-p271:32:32-p272:64:64-i64:64-i128:128-f80:128-n8:16:32:64-S128"
target triple = "x86_64-pc-linux-gnu"

%struct.Wln_Ntk_t_ = type { ptr, ptr, i32, %struct.Vec_Int_t_, %struct.Vec_Int_t_, %struct.Vec_Int_t_, %struct.Vec_Int_t_, ptr, %struct.Vec_Int_t_, ptr, %struct.Vec_Int_t_, %struct.Vec_Int_t_, ptr, %struct.Vec_Str_t_, i32, %struct.Vec_Int_t_, %struct.Vec_Int_t_, %struct.Vec_Int_t_, %struct.Vec_Int_t_, %struct.Vec_Int_t_, %struct.Vec_Int_t_, %struct.Vec_Int_t_, %struct.Vec_Int_t_, ptr, [99 x i32], [99 x i32] }
%struct.Vec_Str_t_ = type { i32, i32, ptr }
%struct.Vec_Int_t_ = type { i32, i32, ptr }
%struct.Wln_Vec_t_ = type { i32, i32, %union.anon }
%union.anon = type { [1 x ptr] }
%struct.Hash_IntMan_t_ = type { ptr, ptr, i32 }
%struct.Hash_IntObj_t_ = type { i32, i32, i32, i32 }

; Function Attrs: nounwind uwtable
define internal ptr @Vec_IntEntryP(ptr noundef %0, i32 noundef %1) #0 {
  %3 = alloca ptr, align 8
  %4 = alloca i32, align 4
  store ptr %0, ptr %3, align 8
  store i32 %1, ptr %4, align 4
  %5 = load ptr, ptr %3, align 8
  %6 = getelementptr inbounds %struct.Vec_Int_t_, ptr %5, i32 0, i32 2
  %7 = load ptr, ptr %6, align 8
  %8 = load i32, ptr %4, align 4
  %9 = sext i32 %8 to i64
  %10 = getelementptr inbounds i32, ptr %7, i64 %9
  ret ptr %10
}

; Function Attrs: nounwind uwtable
define internal ptr @Hash_IntObj(ptr noundef %0, i32 noundef %1) #0 {
  %3 = alloca ptr, align 8
  %4 = alloca i32, align 4
  store ptr %0, ptr %3, align 8
  store i32 %1, ptr %4, align 4
  %5 = load i32, ptr %4, align 4
  %6 = icmp ne i32 %5, 0
  br i1 %6, label %7, label %14

7:                                                ; preds = %2
  %8 = load ptr, ptr %3, align 8
  %9 = getelementptr inbounds %struct.Hash_IntMan_t_, ptr %8, i32 0, i32 1
  %10 = load ptr, ptr %9, align 8
  %11 = load i32, ptr %4, align 4
  %12 = mul nsw i32 4, %11
  %13 = call ptr @Vec_IntEntryP(ptr noundef %10, i32 noundef %12)
  br label %15

14:                                               ; preds = %2
  br label %15

15:                                               ; preds = %14, %7
  %16 = phi ptr [ %13, %7 ], [ null, %14 ]
  ret ptr %16
}

; Function Attrs: nounwind uwtable
define internal i32 @Hash_IntObjData1(ptr noundef %0, i32 noundef %1) #0 {
  %3 = alloca ptr, align 8
  %4 = alloca i32, align 4
  store ptr %0, ptr %3, align 8
  store i32 %1, ptr %4, align 4
  %5 = load ptr, ptr %3, align 8
  %6 = load i32, ptr %4, align 4
  %7 = call ptr @Hash_IntObj(ptr noundef %5, i32 noundef %6)
  %8 = getelementptr inbounds %struct.Hash_IntObj_t_, ptr %7, i32 0, i32 1
  %9 = load i32, ptr %8, align 4
  ret i32 %9
}

; Function Attrs: nounwind uwtable
define internal i32 @Hash_IntObjData0(ptr noundef %0, i32 noundef %1) #0 {
  %3 = alloca ptr, align 8
  %4 = alloca i32, align 4
  store ptr %0, ptr %3, align 8
  store i32 %1, ptr %4, align 4
  %5 = load ptr, ptr %3, align 8
  %6 = load i32, ptr %4, align 4
  %7 = call ptr @Hash_IntObj(ptr noundef %5, i32 noundef %6)
  %8 = getelementptr inbounds %struct.Hash_IntObj_t_, ptr %7, i32 0, i32 0
  %9 = load i32, ptr %8, align 4
  ret i32 %9
}

; Function Attrs: nounwind uwtable
define internal i32 @Wln_ObjRangeId(ptr noundef %0, i32 noundef %1) #0 {
  %3 = alloca ptr, align 8
  %4 = alloca i32, align 4
  store ptr %0, ptr %3, align 8
  store i32 %1, ptr %4, align 4
  %5 = load ptr, ptr %3, align 8
  %6 = getelementptr inbounds %struct.Wln_Ntk_t_, ptr %5, i32 0, i32 8
  %7 = load i32, ptr %4, align 4
  %8 = call i32 @Vec_IntEntry(ptr noundef %6, i32 noundef %7)
  ret i32 %8
}

; Function Attrs: nounwind uwtable
define internal signext i8 @Vec_StrEntry(ptr noundef %0, i32 noundef %1) #0 {
  %3 = alloca ptr, align 8
  %4 = alloca i32, align 4
  store ptr %0, ptr %3, align 8
  store i32 %1, ptr %4, align 4
  %5 = load ptr, ptr %3, align 8
  %6 = getelementptr inbounds %struct.Vec_Str_t_, ptr %5, i32 0, i32 2
  %7 = load ptr, ptr %6, align 8
  %8 = load i32, ptr %4, align 4
  %9 = sext i32 %8 to i64
  %10 = getelementptr inbounds i8, ptr %7, i64 %9
  %11 = load i8, ptr %10, align 1
  ret i8 %11
}

; Function Attrs: nounwind uwtable
define internal i32 @Vec_IntEntry(ptr noundef %0, i32 noundef %1) #0 {
  %3 = alloca ptr, align 8
  %4 = alloca i32, align 4
  store ptr %0, ptr %3, align 8
  store i32 %1, ptr %4, align 4
  %5 = load ptr, ptr %3, align 8
  %6 = getelementptr inbounds %struct.Vec_Int_t_, ptr %5, i32 0, i32 2
  %7 = load ptr, ptr %6, align 8
  %8 = load i32, ptr %4, align 4
  %9 = sext i32 %8 to i64
  %10 = getelementptr inbounds i32, ptr %7, i64 %9
  %11 = load i32, ptr %10, align 4
  ret i32 %11
}

; Function Attrs: nounwind uwtable
define internal i32 @Wln_ObjFaninNum(ptr noundef %0, i32 noundef %1) #0 {
  %3 = alloca ptr, align 8
  %4 = alloca i32, align 4
  store ptr %0, ptr %3, align 8
  store i32 %1, ptr %4, align 4
  %5 = load ptr, ptr %3, align 8
  %6 = getelementptr inbounds %struct.Wln_Ntk_t_, ptr %5, i32 0, i32 7
  %7 = load ptr, ptr %6, align 8
  %8 = load i32, ptr %4, align 4
  %9 = sext i32 %8 to i64
  %10 = getelementptr inbounds %struct.Wln_Vec_t_, ptr %7, i64 %9
  %11 = getelementptr inbounds %struct.Wln_Vec_t_, ptr %10, i32 0, i32 1
  %12 = load i32, ptr %11, align 4
  ret i32 %12
}

; Function Attrs: nounwind uwtable
define internal void @Vec_IntWriteEntry(ptr noundef %0, i32 noundef %1, i32 noundef %2) #0 {
  %4 = alloca ptr, align 8
  %5 = alloca i32, align 4
  %6 = alloca i32, align 4
  store ptr %0, ptr %4, align 8
  store i32 %1, ptr %5, align 4
  store i32 %2, ptr %6, align 4
  %7 = load i32, ptr %6, align 4
  %8 = load ptr, ptr %4, align 8
  %9 = getelementptr inbounds %struct.Vec_Int_t_, ptr %8, i32 0, i32 2
  %10 = load ptr, ptr %9, align 8
  %11 = load i32, ptr %5, align 4
  %12 = sext i32 %11 to i64
  %13 = getelementptr inbounds i32, ptr %10, i64 %12
  store i32 %7, ptr %13, align 4
  ret void
}

; Function Attrs: nounwind uwtable
define internal i32 @Wln_ObjRangeBeg(ptr noundef %0, i32 noundef %1) #0 {
  %3 = alloca ptr, align 8
  %4 = alloca i32, align 4
  store ptr %0, ptr %3, align 8
  store i32 %1, ptr %4, align 4
  %5 = load ptr, ptr %3, align 8
  %6 = getelementptr inbounds %struct.Wln_Ntk_t_, ptr %5, i32 0, i32 9
  %7 = load ptr, ptr %6, align 8
  %8 = load ptr, ptr %3, align 8
  %9 = load i32, ptr %4, align 4
  %10 = call i32 @Wln_ObjRangeId(ptr noundef %8, i32 noundef %9)
  %11 = call i32 @Hash_IntObjData1(ptr noundef %7, i32 noundef %10)
  ret i32 %11
}

; Function Attrs: nounwind uwtable
define internal i32 @Wln_ObjRangeEnd(ptr noundef %0, i32 noundef %1) #0 {
  %3 = alloca ptr, align 8
  %4 = alloca i32, align 4
  store ptr %0, ptr %3, align 8
  store i32 %1, ptr %4, align 4
  %5 = load ptr, ptr %3, align 8
  %6 = getelementptr inbounds %struct.Wln_Ntk_t_, ptr %5, i32 0, i32 9
  %7 = load ptr, ptr %6, align 8
  %8 = load ptr, ptr %3, align 8
  %9 = load i32, ptr %4, align 4
  %10 = call i32 @Wln_ObjRangeId(ptr noundef %8, i32 noundef %9)
  %11 = call i32 @Hash_IntObjData0(ptr noundef %7, i32 noundef %10)
  ret i32 %11
}

; Function Attrs: nounwind uwtable
define internal i32 @Wln_ObjIsSigned(ptr noundef %0, i32 noundef %1) #0 {
  %3 = alloca ptr, align 8
  %4 = alloca i32, align 4
  store ptr %0, ptr %3, align 8
  store i32 %1, ptr %4, align 4
  %5 = load ptr, ptr %3, align 8
  %6 = getelementptr inbounds %struct.Wln_Ntk_t_, ptr %5, i32 0, i32 13
  %7 = load i32, ptr %4, align 4
  %8 = call signext i8 @Vec_StrEntry(ptr noundef %6, i32 noundef %7)
  %9 = sext i8 %8 to i32
  ret i32 %9
}

; Function Attrs: nounwind uwtable
define internal i32 @Wln_ObjType(ptr noundef %0, i32 noundef %1) #0 {
  %3 = alloca ptr, align 8
  %4 = alloca i32, align 4
  store ptr %0, ptr %3, align 8
  store i32 %1, ptr %4, align 4
  %5 = load ptr, ptr %3, align 8
  %6 = getelementptr inbounds %struct.Wln_Ntk_t_, ptr %5, i32 0, i32 6
  %7 = load i32, ptr %4, align 4
  %8 = call i32 @Vec_IntEntry(ptr noundef %6, i32 noundef %7)
  ret i32 %8
}

; Function Attrs: nounwind uwtable
define void @Wln_ObjAddFanin(ptr noundef %0, i32 noundef %1, i32 noundef %2) #0 {
  %4 = alloca ptr, align 8
  %5 = alloca i32, align 4
  %6 = alloca i32, align 4
  %7 = alloca ptr, align 8
  %8 = alloca ptr, align 8
  store ptr %0, ptr %4, align 8
  store i32 %1, ptr %5, align 4
  store i32 %2, ptr %6, align 4
  %9 = load ptr, ptr %4, align 8
  %10 = getelementptr inbounds %struct.Wln_Ntk_t_, ptr %9, i32 0, i32 7
  %11 = load ptr, ptr %10, align 8
  %12 = load i32, ptr %5, align 4
  %13 = sext i32 %12 to i64
  %14 = getelementptr inbounds %struct.Wln_Vec_t_, ptr %11, i64 %13
  store ptr %14, ptr %7, align 8
  %15 = load ptr, ptr %4, align 8
  %16 = load i32, ptr %5, align 4
  %17 = call i32 @Wln_ObjFaninNum(ptr noundef %15, i32 noundef %16)
  %18 = icmp slt i32 %17, 2
  br i1 %18, label %19, label %29

19:                                               ; preds = %3
  %20 = load i32, ptr %6, align 4
  %21 = load ptr, ptr %7, align 8
  %22 = getelementptr inbounds %struct.Wln_Vec_t_, ptr %21, i32 0, i32 2
  %23 = load ptr, ptr %7, align 8
  %24 = getelementptr inbounds %struct.Wln_Vec_t_, ptr %23, i32 0, i32 1
  %25 = load i32, ptr %24, align 4
  %26 = add nsw i32 %25, 1
  store i32 %26, ptr %24, align 4
  %27 = sext i32 %25 to i64
  %28 = getelementptr inbounds [2 x i32], ptr %22, i64 0, i64 %27
  store i32 %20, ptr %28, align 4
  br label %115

29:                                               ; preds = %3
  %30 = load ptr, ptr %4, align 8
  %31 = load i32, ptr %5, align 4
  %32 = call i32 @Wln_ObjFaninNum(ptr noundef %30, i32 noundef %31)
  %33 = icmp eq i32 %32, 2
  br i1 %33, label %34, label %59

34:                                               ; preds = %29
  %35 = call noalias ptr @malloc(i64 noundef 16) #7
  store ptr %35, ptr %8, align 8
  %36 = load ptr, ptr %7, align 8
  %37 = getelementptr inbounds %struct.Wln_Vec_t_, ptr %36, i32 0, i32 2
  %38 = getelementptr inbounds [2 x i32], ptr %37, i64 0, i64 0
  %39 = load i32, ptr %38, align 8
  %40 = load ptr, ptr %8, align 8
  %41 = getelementptr inbounds i32, ptr %40, i64 0
  store i32 %39, ptr %41, align 4
  %42 = load ptr, ptr %7, align 8
  %43 = getelementptr inbounds %struct.Wln_Vec_t_, ptr %42, i32 0, i32 2
  %44 = getelementptr inbounds [2 x i32], ptr %43, i64 0, i64 1
  %45 = load i32, ptr %44, align 4
  %46 = load ptr, ptr %8, align 8
  %47 = getelementptr inbounds i32, ptr %46, i64 1
  store i32 %45, ptr %47, align 4
  %48 = load i32, ptr %6, align 4
  %49 = load ptr, ptr %8, align 8
  %50 = getelementptr inbounds i32, ptr %49, i64 2
  store i32 %48, ptr %50, align 4
  %51 = load ptr, ptr %8, align 8
  %52 = load ptr, ptr %7, align 8
  %53 = getelementptr inbounds %struct.Wln_Vec_t_, ptr %52, i32 0, i32 2
  %54 = getelementptr inbounds [1 x ptr], ptr %53, i64 0, i64 0
  store ptr %51, ptr %54, align 8
  %55 = load ptr, ptr %7, align 8
  %56 = getelementptr inbounds %struct.Wln_Vec_t_, ptr %55, i32 0, i32 1
  store i32 3, ptr %56, align 4
  %57 = load ptr, ptr %7, align 8
  %58 = getelementptr inbounds %struct.Wln_Vec_t_, ptr %57, i32 0, i32 0
  store i32 4, ptr %58, align 8
  br label %114

59:                                               ; preds = %29
  %60 = load ptr, ptr %7, align 8
  %61 = getelementptr inbounds %struct.Wln_Vec_t_, ptr %60, i32 0, i32 1
  %62 = load i32, ptr %61, align 4
  %63 = load ptr, ptr %7, align 8
  %64 = getelementptr inbounds %struct.Wln_Vec_t_, ptr %63, i32 0, i32 0
  %65 = load i32, ptr %64, align 8
  %66 = icmp eq i32 %62, %65
  br i1 %66, label %67, label %102

67:                                               ; preds = %59
  %68 = load ptr, ptr %7, align 8
  %69 = getelementptr inbounds %struct.Wln_Vec_t_, ptr %68, i32 0, i32 2
  %70 = getelementptr inbounds [1 x ptr], ptr %69, i64 0, i64 0
  %71 = load ptr, ptr %70, align 8
  %72 = icmp ne ptr %71, null
  br i1 %72, label %73, label %87

73:                                               ; preds = %67
  %74 = load ptr, ptr %7, align 8
  %75 = getelementptr inbounds %struct.Wln_Vec_t_, ptr %74, i32 0, i32 2
  %76 = getelementptr inbounds [1 x ptr], ptr %75, i64 0, i64 0
  %77 = load ptr, ptr %76, align 8
  %78 = load ptr, ptr %7, align 8
  %79 = getelementptr inbounds %struct.Wln_Vec_t_, ptr %78, i32 0, i32 1
  %80 = load i32, ptr %79, align 4
  %81 = mul nsw i32 2, %80
  %82 = load ptr, ptr %7, align 8
  %83 = getelementptr inbounds %struct.Wln_Vec_t_, ptr %82, i32 0, i32 0
  store i32 %81, ptr %83, align 8
  %84 = sext i32 %81 to i64
  %85 = mul i64 4, %84
  %86 = call ptr @realloc(ptr noundef %77, i64 noundef %85) #8
  br label %97

87:                                               ; preds = %67
  %88 = load ptr, ptr %7, align 8
  %89 = getelementptr inbounds %struct.Wln_Vec_t_, ptr %88, i32 0, i32 1
  %90 = load i32, ptr %89, align 4
  %91 = mul nsw i32 2, %90
  %92 = load ptr, ptr %7, align 8
  %93 = getelementptr inbounds %struct.Wln_Vec_t_, ptr %92, i32 0, i32 0
  store i32 %91, ptr %93, align 8
  %94 = sext i32 %91 to i64
  %95 = mul i64 4, %94
  %96 = call noalias ptr @malloc(i64 noundef %95) #7
  br label %97

97:                                               ; preds = %87, %73
  %98 = phi ptr [ %86, %73 ], [ %96, %87 ]
  %99 = load ptr, ptr %7, align 8
  %100 = getelementptr inbounds %struct.Wln_Vec_t_, ptr %99, i32 0, i32 2
  %101 = getelementptr inbounds [1 x ptr], ptr %100, i64 0, i64 0
  store ptr %98, ptr %101, align 8
  br label %102

102:                                              ; preds = %97, %59
  %103 = load i32, ptr %6, align 4
  %104 = load ptr, ptr %7, align 8
  %105 = getelementptr inbounds %struct.Wln_Vec_t_, ptr %104, i32 0, i32 2
  %106 = getelementptr inbounds [1 x ptr], ptr %105, i64 0, i64 0
  %107 = load ptr, ptr %106, align 8
  %108 = load ptr, ptr %7, align 8
  %109 = getelementptr inbounds %struct.Wln_Vec_t_, ptr %108, i32 0, i32 1
  %110 = load i32, ptr %109, align 4
  %111 = add nsw i32 %110, 1
  store i32 %111, ptr %109, align 4
  %112 = sext i32 %110 to i64
  %113 = getelementptr inbounds i32, ptr %107, i64 %112
  store i32 %103, ptr %113, align 4
  br label %114

114:                                              ; preds = %102, %34
  br label %115

115:                                              ; preds = %114, %19
  ret void
}

; Function Attrs: nounwind uwtable
define void @Wln_ObjUpdateType(ptr noundef %0, i32 noundef %1, i32 noundef %2) #0 {
  %4 = alloca ptr, align 8
  %5 = alloca i32, align 4
  %6 = alloca i32, align 4
  store ptr %0, ptr %4, align 8
  store i32 %1, ptr %5, align 4
  store i32 %2, ptr %6, align 4
  %7 = load ptr, ptr %4, align 8
  %8 = getelementptr inbounds %struct.Wln_Ntk_t_, ptr %7, i32 0, i32 24
  %9 = load ptr, ptr %4, align 8
  %10 = load i32, ptr %5, align 4
  %11 = call i32 @Wln_ObjType(ptr noundef %9, i32 noundef %10)
  %12 = sext i32 %11 to i64
  %13 = getelementptr inbounds [99 x i32], ptr %8, i64 0, i64 %12
  %14 = load i32, ptr %13, align 4
  %15 = add nsw i32 %14, -1
  store i32 %15, ptr %13, align 4
  %16 = load ptr, ptr %4, align 8
  %17 = getelementptr inbounds %struct.Wln_Ntk_t_, ptr %16, i32 0, i32 6
  %18 = load i32, ptr %5, align 4
  %19 = load i32, ptr %6, align 4
  call void @Vec_IntWriteEntry(ptr noundef %17, i32 noundef %18, i32 noundef %19)
  %20 = load ptr, ptr %4, align 8
  %21 = getelementptr inbounds %struct.Wln_Ntk_t_, ptr %20, i32 0, i32 24
  %22 = load ptr, ptr %4, align 8
  %23 = load i32, ptr %5, align 4
  %24 = call i32 @Wln_ObjType(ptr noundef %22, i32 noundef %23)
  %25 = sext i32 %24 to i64
  %26 = getelementptr inbounds [99 x i32], ptr %21, i64 0, i64 %25
  %27 = load i32, ptr %26, align 4
  %28 = add nsw i32 %27, 1
  store i32 %28, ptr %26, align 4
  ret void
}

; Function Attrs: nounwind uwtable
define i32 @Wln_ObjClone(ptr noundef %0, ptr noundef %1, i32 noundef %2) #0 {
  %4 = alloca ptr, align 8
  %5 = alloca ptr, align 8
  %6 = alloca i32, align 4
  store ptr %0, ptr %4, align 8
  store ptr %1, ptr %5, align 8
  store i32 %2, ptr %6, align 4
  %7 = load ptr, ptr %4, align 8
  %8 = load ptr, ptr %5, align 8
  %9 = load i32, ptr %6, align 4
  %10 = call i32 @Wln_ObjType(ptr noundef %8, i32 noundef %9)
  %11 = load ptr, ptr %5, align 8
  %12 = load i32, ptr %6, align 4
  %13 = call i32 @Wln_ObjIsSigned(ptr noundef %11, i32 noundef %12)
  %14 = load ptr, ptr %5, align 8
  %15 = load i32, ptr %6, align 4
  %16 = call i32 @Wln_ObjRangeEnd(ptr noundef %14, i32 noundef %15)
  %17 = load ptr, ptr %5, align 8
  %18 = load i32, ptr %6, align 4
  %19 = call i32 @Wln_ObjRangeBeg(ptr noundef %17, i32 noundef %18)
  %20 = call i32 @Wln_ObjAlloc(ptr noundef %7, i32 noundef %10, i32 noundef %13, i32 noundef %16, i32 noundef %19)
  ret i32 %20
}

; Function Attrs: nounwind uwtable
define i32 @Wln_ObjCreateCo(ptr noundef %0, i32 noundef %1) #0 {
  %3 = alloca ptr, align 8
  %4 = alloca i32, align 4
  %5 = alloca i32, align 4
  store ptr %0, ptr %3, align 8
  store i32 %1, ptr %4, align 4
  %6 = load ptr, ptr %3, align 8
  %7 = load ptr, ptr %3, align 8
  %8 = load i32, ptr %4, align 4
  %9 = call i32 @Wln_ObjClone(ptr noundef %6, ptr noundef %7, i32 noundef %8)
  store i32 %9, ptr %5, align 4
  %10 = load ptr, ptr %3, align 8
  %11 = load i32, ptr %5, align 4
  call void @Wln_ObjUpdateType(ptr noundef %10, i32 noundef %11, i32 noundef 4)
  %12 = load ptr, ptr %3, align 8
  %13 = load i32, ptr %5, align 4
  %14 = load i32, ptr %4, align 4
  call void @Wln_ObjAddFanin(ptr noundef %12, i32 noundef %13, i32 noundef %14)
  %15 = load i32, ptr %5, align 4
  ret i32 %15
}