; Function Attrs: nounwind uwtable
define i32 @Wln_ObjCreateCo(ptr noundef %0, i32 noundef %1) local_unnamed_addr #0 {
  %3 = getelementptr i8, ptr %0, i64 80
  %.val.i = load ptr, ptr %3, align 8
  %4 = sext i32 %1 to i64
  %5 = getelementptr inbounds i32, ptr %.val.i, i64 %4
  %6 = load i32, ptr %5, align 4
  %7 = getelementptr i8, ptr %0, i64 168
  %.val8.i = load ptr, ptr %7, align 8
  %8 = getelementptr inbounds i8, ptr %.val8.i, i64 %4
  %9 = load i8, ptr %8, align 1
  %10 = sext i8 %9 to i32
  %11 = getelementptr i8, ptr %0, i64 104
  %.val9.i = load ptr, ptr %11, align 8
  %12 = getelementptr i8, ptr %0, i64 112
  %.val10.i = load ptr, ptr %12, align 8
  %13 = getelementptr i8, ptr %.val10.i, i64 8
  %.val10.val.i = load ptr, ptr %13, align 8
  %14 = getelementptr i8, ptr %.val10.val.i, i64 8
  %.val10.val.val.i = load ptr, ptr %14, align 8
  %15 = getelementptr inbounds i32, ptr %.val9.i, i64 %4
  %16 = load i32, ptr %15, align 4
  %.not.i.i.i.i = icmp ne i32 %16, 0
  tail call void @llvm.assume(i1 %.not.i.i.i.i)
  %17 = shl nsw i32 %16, 2
  %18 = sext i32 %17 to i64
  %19 = getelementptr inbounds i32, ptr %.val10.val.val.i, i64 %18
  %20 = load i32, ptr %19, align 4
  %21 = getelementptr inbounds nuw i8, ptr %19, i64 4
  %22 = load i32, ptr %21, align 4
  %23 = tail call i32 @Wln_ObjAlloc(ptr noundef %0, i32 noundef %6, i32 noundef %10, i32 noundef %20, i32 noundef %22)
  %24 = getelementptr inbounds nuw i8, ptr %0, i64 320
  %.val.i8 = load ptr, ptr %3, align 8
  %25 = sext i32 %23 to i64
  %26 = getelementptr inbounds i32, ptr %.val.i8, i64 %25
  %27 = load i32, ptr %26, align 4
  %28 = sext i32 %27 to i64
  %29 = getelementptr inbounds [99 x i32], ptr %24, i64 0, i64 %28
  %30 = load i32, ptr %29, align 4
  %31 = add nsw i32 %30, -1
  store i32 %31, ptr %29, align 4
  %.val9.i9 = load ptr, ptr %3, align 8
  %32 = getelementptr inbounds i32, ptr %.val9.i9, i64 %25
  store i32 4, ptr %32, align 4
  %.val8.i10 = load ptr, ptr %3, align 8
  %33 = getelementptr inbounds i32, ptr %.val8.i10, i64 %25
  %34 = load i32, ptr %33, align 4
  %35 = sext i32 %34 to i64
  %36 = getelementptr inbounds [99 x i32], ptr %24, i64 0, i64 %35
  %37 = load i32, ptr %36, align 4
  %38 = add nsw i32 %37, 1
  store i32 %38, ptr %36, align 4
  %39 = getelementptr inbounds nuw i8, ptr %0, i64 88
  %40 = load ptr, ptr %39, align 8
  %41 = getelementptr inbounds %struct.Wln_Vec_t_, ptr %40, i64 %25
  %42 = getelementptr inbounds %struct.Wln_Vec_t_, ptr %40, i64 %25, i32 1
  %43 = load i32, ptr %42, align 4
  %44 = icmp slt i32 %43, 2
  br i1 %44, label %45, label %51

45:                                               ; preds = %2
  %46 = getelementptr inbounds nuw i8, ptr %41, i64 8
  %47 = getelementptr inbounds nuw i8, ptr %41, i64 4
  %48 = add nsw i32 %43, 1
  store i32 %48, ptr %47, align 4
  %49 = sext i32 %43 to i64
  %50 = getelementptr inbounds [2 x i32], ptr %46, i64 0, i64 %49
  store i32 %1, ptr %50, align 4
  br label %Wln_ObjAddFanin.exit

51:                                               ; preds = %2
  %52 = icmp eq i32 %43, 2
  br i1 %52, label %53, label %62

53:                                               ; preds = %51
  %54 = tail call noalias dereferenceable_or_null(16) ptr @malloc(i64 noundef 16) #13
  %55 = getelementptr inbounds nuw i8, ptr %41, i64 8
  %56 = load i32, ptr %55, align 8
  store i32 %56, ptr %54, align 4
  %57 = getelementptr inbounds nuw i8, ptr %41, i64 12
  %58 = load i32, ptr %57, align 4
  %59 = getelementptr inbounds nuw i8, ptr %54, i64 4
  store i32 %58, ptr %59, align 4
  %60 = getelementptr inbounds nuw i8, ptr %54, i64 8
  store i32 %1, ptr %60, align 4
  store ptr %54, ptr %55, align 8
  %61 = getelementptr inbounds nuw i8, ptr %41, i64 4
  store i32 3, ptr %61, align 4
  store i32 4, ptr %41, align 8
  br label %Wln_ObjAddFanin.exit

62:                                               ; preds = %51
  %63 = getelementptr inbounds nuw i8, ptr %41, i64 4
  %64 = load i32, ptr %41, align 8
  %65 = icmp eq i32 %43, %64
  %66 = getelementptr inbounds nuw i8, ptr %41, i64 8
  %67 = load ptr, ptr %66, align 8
  br i1 %65, label %68, label %._crit_edge.i

68:                                               ; preds = %62
  %.not.i = icmp eq ptr %67, null
  %69 = shl nuw nsw i32 %43, 1
  store i32 %69, ptr %41, align 8
  %70 = zext nneg i32 %69 to i64
  %71 = shl nuw nsw i64 %70, 2
  br i1 %.not.i, label %74, label %72

72:                                               ; preds = %68
  %73 = tail call ptr @realloc(ptr noundef nonnull %67, i64 noundef %71) #14
  %.pre32.pre.i = load i32, ptr %63, align 4
  br label %76

74:                                               ; preds = %68
  %75 = tail call noalias ptr @malloc(i64 noundef %71) #13
  br label %76

76:                                               ; preds = %74, %72
  %.pre32.i = phi i32 [ %.pre32.pre.i, %72 ], [ %43, %74 ]
  %77 = phi ptr [ %73, %72 ], [ %75, %74 ]
  store ptr %77, ptr %66, align 8
  br label %._crit_edge.i

._crit_edge.i:                                    ; preds = %76, %62
  %78 = phi i32 [ %.pre32.i, %76 ], [ %43, %62 ]
  %79 = phi ptr [ %77, %76 ], [ %67, %62 ]
  %80 = add nsw i32 %78, 1
  store i32 %80, ptr %63, align 4
  %81 = sext i32 %78 to i64
  %82 = getelementptr inbounds i32, ptr %79, i64 %81
  store i32 %1, ptr %82, align 4
  br label %Wln_ObjAddFanin.exit

Wln_ObjAddFanin.exit:                             ; preds = %45, %53, %._crit_edge.i
  ret i32 %23
}